; Function Attrs: mustprogress uwtable
define internal noundef zeroext i1 @"_ZNSt17_Function_handlerIFN4lean8optionalINS0_5levelEEERKS2_EZNS0_11instantiateES5_RKNS0_8list_refINS0_4nameEEERKNS7_IS2_EEE3$_0E10_M_managerERSt9_Any_dataRKSH_St18_Manager_operation"(ptr noundef nonnull align 8 captures(none) dereferenceable(16) %0, ptr noundef nonnull readonly align 8 captures(none) dereferenceable(16) %1, i32 noundef %2) #0 align 2 personality ptr @__gxx_personality_v0 {
  switch i32 %2, label %"_ZNSt14_Function_base13_Base_managerIZN4lean11instantiateERKNS1_5levelERKNS1_8list_refINS1_4nameEEERKNS5_IS2_EEE3$_0E10_M_managerERSt9_Any_dataRKSF_St18_Manager_operation.exit" [
    i32 0, label %4
    i32 1, label %5
    i32 3, label %7
    i32 2, label %6
  ]

4:                                                ; preds = %3
  store ptr @"_ZTIZN4lean11instantiateERKNS_5levelERKNS_8list_refINS_4nameEEERKNS3_IS0_EEE3$_0", ptr %0, align 8, !tbaa !144
  br label %"_ZNSt14_Function_base13_Base_managerIZN4lean11instantiateERKNS1_5levelERKNS1_8list_refINS1_4nameEEERKNS5_IS2_EEE3$_0E10_M_managerERSt9_Any_dataRKSF_St18_Manager_operation.exit"

5:                                                ; preds = %3
  %.val = load ptr, ptr %1, align 8, !tbaa !41
  store ptr %.val, ptr %0, align 8, !tbaa !41
  br label %"_ZNSt14_Function_base13_Base_managerIZN4lean11instantiateERKNS1_5levelERKNS1_8list_refINS1_4nameEEERKNS5_IS2_EEE3$_0E10_M_managerERSt9_Any_dataRKSF_St18_Manager_operation.exit"

6:                                                ; preds = %3
  %.val6 = load ptr, ptr %1, align 8
  tail call fastcc void @"_ZNSt14_Function_base13_Base_managerIZN4lean11instantiateERKNS1_5levelERKNS1_8list_refINS1_4nameEEERKNS5_IS2_EEE3$_0E15_M_init_functorIRKSD_EEvRSt9_Any_dataOT_"(ptr noundef nonnull align 8 dereferenceable(16) %0, ptr noundef nonnull align 8 dereferenceable(16) %.val6)
  br label %"_ZNSt14_Function_base13_Base_managerIZN4lean11instantiateERKNS1_5levelERKNS1_8list_refINS1_4nameEEERKNS5_IS2_EEE3$_0E10_M_managerERSt9_Any_dataRKSF_St18_Manager_operation.exit"

7:                                                ; preds = %3
  %.val7.i = load ptr, ptr %0, align 8, !tbaa !41
  %8 = icmp eq ptr %.val7.i, null
  br i1 %8, label %"_ZNSt14_Function_base13_Base_managerIZN4lean11instantiateERKNS1_5levelERKNS1_8list_refINS1_4nameEEERKNS5_IS2_EEE3$_0E10_M_managerERSt9_Any_dataRKSF_St18_Manager_operation.exit", label %9

9:                                                ; preds = %7
  %10 = getelementptr inbounds nuw i8, ptr %.val7.i, i64 8
  %11 = load ptr, ptr %10, align 8, !tbaa !3
  %12 = ptrtoint ptr %11 to i64
  %13 = and i64 %12, 1
  %.not.i.i.i.i.i = icmp eq i64 %13, 0
  br i1 %.not.i.i.i.i.i, label %14, label %_ZN4lean10object_refD2Ev.exit.i.i.i

14:                                               ; preds = %9
  %15 = load i32, ptr %11, align 4, !tbaa !8
  %16 = icmp sgt i32 %15, 1
  br i1 %16, label %17, label %19, !prof !11

17:                                               ; preds = %14
  %18 = add nsw i32 %15, -1
  store i32 %18, ptr %11, align 4, !tbaa !8
  br label %_ZN4lean10object_refD2Ev.exit.i.i.i

19:                                               ; preds = %14
  %.not.i.i.i.i.i.i = icmp eq i32 %15, 0
  br i1 %.not.i.i.i.i.i.i, label %_ZN4lean10object_refD2Ev.exit.i.i.i, label %20

20:                                               ; preds = %19
  invoke void @lean_dec_ref_cold(ptr noundef nonnull %11)
          to label %_ZN4lean10object_refD2Ev.exit.i.i.i unwind label %21

21:                                               ; preds = %20
  %22 = landingpad { ptr, i32 }
          catch ptr null
  %23 = extractvalue { ptr, i32 } %22, 0
  tail call void @__clang_call_terminate(ptr %23) #21
  unreachable

_ZN4lean10object_refD2Ev.exit.i.i.i:              ; preds = %20, %19, %17, %9
  %24 = load ptr, ptr %.val7.i, align 8, !tbaa !3
  %25 = ptrtoint ptr %24 to i64
  %26 = and i64 %25, 1
  %.not.i.i1.i.i.i = icmp eq i64 %26, 0
  br i1 %.not.i.i1.i.i.i, label %27, label %"_ZZN4lean11instantiateERKNS_5levelERKNS_8list_refINS_4nameEEERKNS3_IS0_EEEN3$_0D2Ev.exit.i.i"

27:                                               ; preds = %_ZN4lean10object_refD2Ev.exit.i.i.i
  %28 = load i32, ptr %24, align 4, !tbaa !8
  %29 = icmp sgt i32 %28, 1
  br i1 %29, label %30, label %32, !prof !11

30:                                               ; preds = %27
  %31 = add nsw i32 %28, -1
  store i32 %31, ptr %24, align 4, !tbaa !8
  br label %"_ZZN4lean11instantiateERKNS_5levelERKNS_8list_refINS_4nameEEERKNS3_IS0_EEEN3$_0D2Ev.exit.i.i"

32:                                               ; preds = %27
  %.not.i.i.i2.i.i.i = icmp eq i32 %28, 0
  br i1 %.not.i.i.i2.i.i.i, label %"_ZZN4lean11instantiateERKNS_5levelERKNS_8list_refINS_4nameEEERKNS3_IS0_EEEN3$_0D2Ev.exit.i.i", label %33

33:                                               ; preds = %32
  invoke void @lean_dec_ref_cold(ptr noundef nonnull %24)
          to label %"_ZZN4lean11instantiateERKNS_5levelERKNS_8list_refINS_4nameEEERKNS3_IS0_EEEN3$_0D2Ev.exit.i.i" unwind label %34

34:                                               ; preds = %33
  %35 = landingpad { ptr, i32 }
          catch ptr null
  %36 = extractvalue { ptr, i32 } %35, 0
  tail call void @__clang_call_terminate(ptr %36) #21
  unreachable

"_ZZN4lean11instantiateERKNS_5levelERKNS_8list_refINS_4nameEEERKNS3_IS0_EEEN3$_0D2Ev.exit.i.i": ; preds = %33, %32, %30, %_ZN4lean10object_refD2Ev.exit.i.i.i
  tail call void @_ZdlPvm(ptr noundef nonnull %.val7.i, i64 noundef 16) #23
  br label %"_ZNSt14_Function_base13_Base_managerIZN4lean11instantiateERKNS1_5levelERKNS1_8list_refINS1_4nameEEERKNS5_IS2_EEE3$_0E10_M_managerERSt9_Any_dataRKSF_St18_Manager_operation.exit"

"_ZNSt14_Function_base13_Base_managerIZN4lean11instantiateERKNS1_5levelERKNS1_8list_refINS1_4nameEEERKNS5_IS2_EEE3$_0E10_M_managerERSt9_Any_dataRKSF_St18_Manager_operation.exit": ; preds = %3, %"_ZZN4lean11instantiateERKNS_5levelERKNS_8list_refINS_4nameEEERKNS3_IS0_EEEN3$_0D2Ev.exit.i.i", %7, %6, %5, %4
  ret i1 false
}